target datalayout = "e-m:e-p270:32:32-p271:32:32-p272:64:64-i64:64-i128:128-f80:128-n8:16:32:64-S128"
target triple = "x86_64-pc-linux-gnu"

%struct.parse = type { ptr, ptr, i32, ptr, i64, i64, i32, ptr, [10 x i64], [10 x i64] }

@nuls = internal global [10 x i8] zeroinitializer, align 1

; Function Attrs: nounwind uwtable
define internal void @seterr(ptr noundef %0, i32 noundef %1) #0 {
  %3 = alloca ptr, align 8
  %4 = alloca i32, align 4
  store ptr %0, ptr %3, align 8
  store i32 %1, ptr %4, align 4
  %5 = load ptr, ptr %3, align 8
  %6 = getelementptr inbounds %struct.parse, ptr %5, i32 0, i32 2
  %7 = load i32, ptr %6, align 8
  %8 = icmp eq i32 %7, 0
  br i1 %8, label %9, label %13

9:                                                ; preds = %2
  %10 = load i32, ptr %4, align 4
  %11 = load ptr, ptr %3, align 8
  %12 = getelementptr inbounds %struct.parse, ptr %11, i32 0, i32 2
  store i32 %10, ptr %12, align 8
  br label %13

13:                                               ; preds = %9, %2
  %14 = load ptr, ptr %3, align 8
  %15 = getelementptr inbounds %struct.parse, ptr %14, i32 0, i32 0
  store ptr @nuls, ptr %15, align 8
  %16 = load ptr, ptr %3, align 8
  %17 = getelementptr inbounds %struct.parse, ptr %16, i32 0, i32 1
  store ptr @nuls, ptr %17, align 8
  ret void
}

; Function Attrs: nounwind uwtable
define internal void @p_str(ptr noundef %0) #0 {
  %2 = alloca ptr, align 8
  store ptr %0, ptr %2, align 8
  br label %3

3:                                                ; preds = %1
  %4 = load ptr, ptr %2, align 8
  %5 = getelementptr inbounds %struct.parse, ptr %4, i32 0, i32 1
  %6 = load ptr, ptr %5, align 8
  %7 = load ptr, ptr %2, align 8
  %8 = getelementptr inbounds %struct.parse, ptr %7, i32 0, i32 0
  %9 = load ptr, ptr %8, align 8
  %10 = ptrtoint ptr %6 to i64
  %11 = ptrtoint ptr %9 to i64
  %12 = sub i64 %10, %11
  %13 = icmp sgt i64 %12, 0
  br i1 %13, label %16, label %14

14:                                               ; preds = %3
  %15 = load ptr, ptr %2, align 8
  call void @seterr(ptr noundef %15, i32 noundef 14)
  br label %16

16:                                               ; preds = %14, %3
  br label %17

17:                                               ; preds = %16
  br label %18

18:                                               ; preds = %29, %17
  %19 = load ptr, ptr %2, align 8
  %20 = getelementptr inbounds %struct.parse, ptr %19, i32 0, i32 1
  %21 = load ptr, ptr %20, align 8
  %22 = load ptr, ptr %2, align 8
  %23 = getelementptr inbounds %struct.parse, ptr %22, i32 0, i32 0
  %24 = load ptr, ptr %23, align 8
  %25 = ptrtoint ptr %21 to i64
  %26 = ptrtoint ptr %24 to i64
  %27 = sub i64 %25, %26
  %28 = icmp sgt i64 %27, 0
  br i1 %28, label %29, label %37

29:                                               ; preds = %18
  %30 = load ptr, ptr %2, align 8
  %31 = load ptr, ptr %2, align 8
  %32 = getelementptr inbounds %struct.parse, ptr %31, i32 0, i32 0
  %33 = load ptr, ptr %32, align 8
  %34 = getelementptr inbounds i8, ptr %33, i32 1
  store ptr %34, ptr %32, align 8
  %35 = load i8, ptr %33, align 1
  %36 = sext i8 %35 to i32
  call void @ordinary(ptr noundef %30, i32 noundef %36)
  br label %18

37:                                               ; preds = %18
  ret void
}