; Function Attrs: nounwind uwtable
define internal fastcc void @p_str(ptr noundef %0) unnamed_addr #0 {
  %2 = getelementptr inbounds i8, ptr %0, i64 8
  %3 = load ptr, ptr %2, align 8
  %4 = load ptr, ptr %0, align 8
  %5 = ptrtoint ptr %3 to i64
  %6 = ptrtoint ptr %4 to i64
  %7 = sub i64 %5, %6
  %8 = icmp sgt i64 %7, 0
  br i1 %8, label %14, label %9

9:                                                ; preds = %1
  %10 = getelementptr inbounds i8, ptr %0, i64 16
  %11 = load i32, ptr %10, align 8
  %12 = icmp eq i32 %11, 0
  br i1 %12, label %13, label %seterr.exit

13:                                               ; preds = %9
  store i32 14, ptr %10, align 8
  br label %seterr.exit

seterr.exit:                                      ; preds = %9, %13
  store ptr @nuls, ptr %0, align 8
  store ptr @nuls, ptr %2, align 8
  br label %14

14:                                               ; preds = %1, %seterr.exit
  %15 = phi ptr [ %4, %1 ], [ @nuls, %seterr.exit ]
  %16 = phi ptr [ %3, %1 ], [ @nuls, %seterr.exit ]
  %17 = ptrtoint ptr %16 to i64
  %18 = ptrtoint ptr %15 to i64
  %19 = sub i64 %17, %18
  %20 = icmp sgt i64 %19, 0
  br i1 %20, label %.lr.ph, label %._crit_edge

.lr.ph:                                           ; preds = %14, %.lr.ph
  %21 = phi ptr [ %26, %.lr.ph ], [ %15, %14 ]
  %22 = getelementptr inbounds i8, ptr %21, i64 1
  store ptr %22, ptr %0, align 8
  %23 = load i8, ptr %21, align 1
  %24 = sext i8 %23 to i32
  tail call fastcc void @ordinary(ptr noundef nonnull %0, i32 noundef %24)
  %25 = load ptr, ptr %2, align 8
  %26 = load ptr, ptr %0, align 8
  %27 = ptrtoint ptr %25 to i64
  %28 = ptrtoint ptr %26 to i64
  %29 = sub i64 %27, %28
  %30 = icmp sgt i64 %29, 0
  br i1 %30, label %.lr.ph, label %._crit_edge

._crit_edge:                                      ; preds = %.lr.ph, %14
  ret void
}